target datalayout = "e-m:e-p270:32:32-p271:32:32-p272:64:64-i64:64-i128:128-f80:128-n8:16:32:64-S128"
target triple = "x86_64-pc-linux-gnu"

%struct.t_atoms = type { i32, ptr, ptr, ptr, ptr, i32, ptr, ptr, i8, i8, i8, i8, i8 }
%struct.t_symtab = type { i32, ptr }
%class.anon.49 = type { i8 }
%struct.TpxFileHeader = type <{ i8, i8, i8, i8, i8, i8, [2 x i8], i32, i32, float, i32, i64, i32, i32, i8, [7 x i8] }>

@.str.1 = private unnamed_addr constant [123 x i8] c"generated/home/dtcxzyw/WorkSpace/Projects/compilers/llvm-opt-benchmark/bench/gromacs/gromacs/src/gromacs/fileio/confio.cpp\00", align 1
@.str.8 = private unnamed_addr constant [3 x i8] c"*x\00", align 1
@.str.9 = private unnamed_addr constant [3 x i8] c"*v\00", align 1
@.str.20 = private unnamed_addr constant [5 x i8] c"name\00", align 1
@.str.21 = private unnamed_addr constant [16 x i8] c"mtop != nullptr\00", align 1
@.str.22 = private unnamed_addr constant [40 x i8] c"readConfAndTopology requires mtop!=NULL\00", align 1

; Function Attrs: inlinehint mustprogress uwtable
define internal void @_ZL14gmx_sfree_implIcEvPKcS1_iPT_(ptr noundef %0, ptr noundef %1, i32 noundef %2, ptr noundef %3) #3 {
  %5 = alloca ptr, align 8
  %6 = alloca ptr, align 8
  %7 = alloca i32, align 4
  %8 = alloca ptr, align 8
  store ptr %0, ptr %5, align 8, !tbaa !9
  store ptr %1, ptr %6, align 8, !tbaa !9
  store i32 %2, ptr %7, align 4, !tbaa !17
  store ptr %3, ptr %8, align 8, !tbaa !9
  %9 = load ptr, ptr %5, align 8, !tbaa !9
  %10 = load ptr, ptr %6, align 8, !tbaa !9
  %11 = load i32, ptr %7, align 4, !tbaa !17
  %12 = load ptr, ptr %8, align 8, !tbaa !9
  call void @_Z9save_freePKcS0_iPv(ptr noundef %9, ptr noundef %10, i32 noundef %11, ptr noundef %12)
  ret void
}

; Function Attrs: inlinehint mustprogress uwtable
define internal void @_ZL13gmx_snew_implIA3_fEvPKcS2_iRPT_m(ptr noundef %0, ptr noundef %1, i32 noundef %2, ptr noundef nonnull align 8 dereferenceable(8) %3, i64 noundef %4) #3 {
  %6 = alloca ptr, align 8
  %7 = alloca ptr, align 8
  %8 = alloca i32, align 4
  %9 = alloca ptr, align 8
  %10 = alloca i64, align 8
  store ptr %0, ptr %6, align 8, !tbaa !9
  store ptr %1, ptr %7, align 8, !tbaa !9
  store i32 %2, ptr %8, align 4, !tbaa !17
  store ptr %3, ptr %9, align 8, !tbaa !127
  store i64 %4, ptr %10, align 8, !tbaa !53
  %11 = load ptr, ptr %6, align 8, !tbaa !9
  %12 = load ptr, ptr %7, align 8, !tbaa !9
  %13 = load i32, ptr %8, align 4, !tbaa !17
  %14 = load i64, ptr %10, align 8, !tbaa !53
  %15 = call noundef ptr @_Z11save_callocPKcS0_imm(ptr noundef %11, ptr noundef %12, i32 noundef %13, i64 noundef %14, i64 noundef 12)
  %16 = load ptr, ptr %9, align 8, !tbaa !127
  store ptr %15, ptr %16, align 8, !tbaa !13
  ret void
}

; Function Attrs: inlinehint mustprogress uwtable
define internal void @"_ZZ19readConfAndTopologyRKNSt10filesystem7__cxx114pathEPbP10gmx_mtop_tP7PbcTypePPA3_fSB_SA_ENK3$_0clEv"(ptr noundef nonnull align 1 dereferenceable(1) %0) #3 align 2 {
  %2 = alloca ptr, align 8
  store ptr %0, ptr %2, align 8, !tbaa !126
  call void @_ZN3gmx8internal13assertHandlerEPKcS2_S2_S2_i(ptr noundef @.str.21, ptr noundef @.str.22, ptr noundef @"__PRETTY_FUNCTION__._ZZ19readConfAndTopologyRKNSt10filesystem7__cxx114pathEPbP10gmx_mtop_tP7PbcTypePPA3_fSB_SA_ENK3$_0clEv", ptr noundef @.str.1, i32 noundef 458) #13
  unreachable
}

; Function Attrs: mustprogress uwtable
define void @_Z19readConfAndTopologyRKNSt10filesystem7__cxx114pathEPbP10gmx_mtop_tP7PbcTypePPA3_fSB_SA_(ptr noundef nonnull align 8 dereferenceable(40) %0, ptr noundef %1, ptr noundef %2, ptr noundef %3, ptr noundef %4, ptr noundef %5, ptr noundef %6) #0 {
  %8 = alloca ptr, align 8
  %9 = alloca ptr, align 8
  %10 = alloca ptr, align 8
  %11 = alloca ptr, align 8
  %12 = alloca ptr, align 8
  %13 = alloca ptr, align 8
  %14 = alloca ptr, align 8
  %15 = alloca %class.anon.49, align 1
  %16 = alloca %struct.TpxFileHeader, align 8
  %17 = alloca i32, align 4
  %18 = alloca i32, align 4
  %19 = alloca %struct.t_symtab, align 8
  %20 = alloca ptr, align 8
  %21 = alloca %struct.t_atoms, align 8
  store ptr %0, ptr %8, align 8, !tbaa !4
  store ptr %1, ptr %9, align 8, !tbaa !183
  store ptr %2, ptr %10, align 8, !tbaa !95
  store ptr %3, ptr %11, align 8, !tbaa !126
  store ptr %4, ptr %12, align 8, !tbaa !127
  store ptr %5, ptr %13, align 8, !tbaa !127
  store ptr %6, ptr %14, align 8, !tbaa !13
  %22 = load ptr, ptr %10, align 8, !tbaa !95
  %23 = icmp ne ptr %22, null
  call void @llvm.lifetime.start.p0(i64 1, ptr %15) #12
  br i1 %23, label %24, label %25

24:                                               ; preds = %7
  br label %26

25:                                               ; preds = %7
  call void @"_ZZ19readConfAndTopologyRKNSt10filesystem7__cxx114pathEPbP10gmx_mtop_tP7PbcTypePPA3_fSB_SA_ENK3$_0clEv"(ptr noundef nonnull align 1 dereferenceable(1) %15)
  br label %26

26:                                               ; preds = %25, %24
  call void @llvm.lifetime.end.p0(i64 1, ptr %15) #12
  %27 = load ptr, ptr %11, align 8, !tbaa !126
  %28 = icmp ne ptr %27, null
  br i1 %28, label %29, label %31

29:                                               ; preds = %26
  %30 = load ptr, ptr %11, align 8, !tbaa !126
  store i32 4, ptr %30, align 4, !tbaa !15
  br label %31

31:                                               ; preds = %29, %26
  %32 = load ptr, ptr %8, align 8, !tbaa !4
  %33 = call noundef zeroext i1 @_Z7fn2bTPXRKNSt10filesystem7__cxx114pathE(ptr noundef nonnull align 8 dereferenceable(40) %32)
  %34 = load ptr, ptr %9, align 8, !tbaa !183
  %35 = zext i1 %33 to i8
  store i8 %35, ptr %34, align 1, !tbaa !102
  %36 = load ptr, ptr %9, align 8, !tbaa !183
  %37 = load i8, ptr %36, align 1, !tbaa !102, !range !107, !noundef !108
  %38 = trunc i8 %37 to i1
  br i1 %38, label %39, label %83

39:                                               ; preds = %31
  call void @llvm.lifetime.start.p0(i64 48, ptr %16) #12
  %40 = load ptr, ptr %8, align 8, !tbaa !4
  call void @_Z13readTpxHeaderRKNSt10filesystem7__cxx114pathEb(ptr dead_on_unwind writable sret(%struct.TpxFileHeader) align 8 %16, ptr noundef nonnull align 8 dereferenceable(40) %40, i1 noundef zeroext true)
  %41 = load ptr, ptr %12, align 8, !tbaa !127
  %42 = icmp ne ptr %41, null
  br i1 %42, label %43, label %48

43:                                               ; preds = %39
  %44 = load ptr, ptr %12, align 8, !tbaa !127
  %45 = getelementptr inbounds nuw %struct.TpxFileHeader, ptr %16, i32 0, i32 7
  %46 = load i32, ptr %45, align 8, !tbaa !185
  %47 = sext i32 %46 to i64
  call void @_ZL13gmx_snew_implIA3_fEvPKcS2_iRPT_m(ptr noundef @.str.8, ptr noundef @.str.1, i32 noundef 471, ptr noundef nonnull align 8 dereferenceable(8) %44, i64 noundef %47)
  br label %48

48:                                               ; preds = %43, %39
  %49 = load ptr, ptr %13, align 8, !tbaa !127
  %50 = icmp ne ptr %49, null
  br i1 %50, label %51, label %56

51:                                               ; preds = %48
  %52 = load ptr, ptr %13, align 8, !tbaa !127
  %53 = getelementptr inbounds nuw %struct.TpxFileHeader, ptr %16, i32 0, i32 7
  %54 = load i32, ptr %53, align 8, !tbaa !185
  %55 = sext i32 %54 to i64
  call void @_ZL13gmx_snew_implIA3_fEvPKcS2_iRPT_m(ptr noundef @.str.9, ptr noundef @.str.1, i32 noundef 475, ptr noundef nonnull align 8 dereferenceable(8) %52, i64 noundef %55)
  br label %56

56:                                               ; preds = %51, %48
  call void @llvm.lifetime.start.p0(i64 4, ptr %17) #12
  call void @llvm.lifetime.start.p0(i64 4, ptr %18) #12
  %57 = load ptr, ptr %8, align 8, !tbaa !4
  %58 = load ptr, ptr %14, align 8, !tbaa !13
  %59 = load ptr, ptr %12, align 8, !tbaa !127
  %60 = icmp eq ptr %59, null
  br i1 %60, label %61, label %62

61:                                               ; preds = %56
  br label %65

62:                                               ; preds = %56
  %63 = load ptr, ptr %12, align 8, !tbaa !127
  %64 = load ptr, ptr %63, align 8, !tbaa !13
  br label %65

65:                                               ; preds = %62, %61
  %66 = phi ptr [ null, %61 ], [ %64, %62 ]
  %67 = load ptr, ptr %13, align 8, !tbaa !127
  %68 = icmp eq ptr %67, null
  br i1 %68, label %69, label %70

69:                                               ; preds = %65
  br label %73

70:                                               ; preds = %65
  %71 = load ptr, ptr %13, align 8, !tbaa !127
  %72 = load ptr, ptr %71, align 8, !tbaa !13
  br label %73

73:                                               ; preds = %70, %69
  %74 = phi ptr [ null, %69 ], [ %72, %70 ]
  %75 = load ptr, ptr %10, align 8, !tbaa !95
  %76 = call noundef i32 @_Z8read_tpxRKNSt10filesystem7__cxx114pathEP10t_inputrecPA3_fPiS7_S7_P10gmx_mtop_t(ptr noundef nonnull align 8 dereferenceable(40) %57, ptr noundef null, ptr noundef %58, ptr noundef %17, ptr noundef %66, ptr noundef %74, ptr noundef %75)
  store i32 %76, ptr %18, align 4, !tbaa !15
  %77 = load ptr, ptr %11, align 8, !tbaa !126
  %78 = icmp ne ptr %77, null
  br i1 %78, label %79, label %82

79:                                               ; preds = %73
  %80 = load i32, ptr %18, align 4, !tbaa !15
  %81 = load ptr, ptr %11, align 8, !tbaa !126
  store i32 %80, ptr %81, align 4, !tbaa !15
  br label %82

82:                                               ; preds = %79, %73
  call void @llvm.lifetime.end.p0(i64 4, ptr %18) #12
  call void @llvm.lifetime.end.p0(i64 4, ptr %17) #12
  call void @llvm.lifetime.end.p0(i64 48, ptr %16) #12
  br label %93

83:                                               ; preds = %31
  call void @llvm.lifetime.start.p0(i64 16, ptr %19) #12
  call void @llvm.lifetime.start.p0(i64 8, ptr %20) #12
  call void @llvm.lifetime.start.p0(i64 72, ptr %21) #12
  call void @_Z11open_symtabP8t_symtab(ptr noundef %19)
  %84 = load ptr, ptr %8, align 8, !tbaa !4
  %85 = load ptr, ptr %11, align 8, !tbaa !126
  %86 = load ptr, ptr %12, align 8, !tbaa !127
  %87 = load ptr, ptr %13, align 8, !tbaa !127
  %88 = load ptr, ptr %14, align 8, !tbaa !13
  call void @_Z16readConfAndAtomsRKNSt10filesystem7__cxx114pathEP8t_symtabPPcP7t_atomsP7PbcTypePPA3_fSE_SD_(ptr noundef nonnull align 8 dereferenceable(40) %84, ptr noundef %19, ptr noundef %20, ptr noundef %21, ptr noundef %85, ptr noundef %86, ptr noundef %87, ptr noundef %88)
  %89 = load ptr, ptr %20, align 8, !tbaa !9
  %90 = call noundef ptr @_Z10put_symtabP8t_symtabPKc(ptr noundef %19, ptr noundef %89)
  %91 = load ptr, ptr %10, align 8, !tbaa !95
  call void @_Z18convertAtomsToMtopP8t_symtabPPcP7t_atomsP10gmx_mtop_t(ptr noundef %19, ptr noundef %90, ptr noundef %21, ptr noundef %91)
  %92 = load ptr, ptr %20, align 8, !tbaa !9
  call void @_ZL14gmx_sfree_implIcEvPKcS1_iPT_(ptr noundef @.str.20, ptr noundef @.str.1, i32 noundef 496, ptr noundef %92)
  call void @llvm.lifetime.end.p0(i64 72, ptr %21) #12
  call void @llvm.lifetime.end.p0(i64 8, ptr %20) #12
  call void @llvm.lifetime.end.p0(i64 16, ptr %19) #12
  br label %93

93:                                               ; preds = %83, %82
  ret void
}