; Function Attrs: mustprogress uwtable
define void @_Z19readConfAndTopologyRKNSt10filesystem7__cxx114pathEPbP10gmx_mtop_tP7PbcTypePPA3_fSB_SA_(ptr noundef nonnull align 8 dereferenceable(40) %0, ptr noundef writeonly captures(none) %1, ptr noundef %2, ptr noundef %3, ptr noundef %4, ptr noundef %5, ptr noundef %6) local_unnamed_addr #0 {
  %8 = alloca %struct.TpxFileHeader, align 8
  %9 = alloca i32, align 4
  %10 = alloca %struct.t_symtab, align 8
  %11 = alloca ptr, align 8
  %12 = alloca %struct.t_atoms, align 8
  %.not = icmp eq ptr %2, null
  br i1 %.not, label %13, label %14

13:                                               ; preds = %7
  tail call void @_ZN3gmx8internal13assertHandlerEPKcS2_S2_S2_i(ptr noundef nonnull @.str.21, ptr noundef nonnull @.str.22, ptr noundef nonnull @"__PRETTY_FUNCTION__._ZZ19readConfAndTopologyRKNSt10filesystem7__cxx114pathEPbP10gmx_mtop_tP7PbcTypePPA3_fSB_SA_ENK3$_0clEv", ptr noundef nonnull @.str.1, i32 noundef 458) #16
  unreachable

14:                                               ; preds = %7
  %.not30 = icmp eq ptr %3, null
  br i1 %.not30, label %16, label %15

15:                                               ; preds = %14
  store i32 4, ptr %3, align 4, !tbaa !142
  br label %16

16:                                               ; preds = %15, %14
  %17 = tail call noundef zeroext i1 @_Z7fn2bTPXRKNSt10filesystem7__cxx114pathE(ptr noundef nonnull align 8 dereferenceable(40) %0)
  %18 = zext i1 %17 to i8
  store i8 %18, ptr %1, align 1, !tbaa !125
  br i1 %17, label %19, label %43

19:                                               ; preds = %16
  call void @llvm.lifetime.start.p0(i64 48, ptr nonnull %8) #15
  call void @_Z13readTpxHeaderRKNSt10filesystem7__cxx114pathEb(ptr dead_on_unwind nonnull writable sret(%struct.TpxFileHeader) align 8 %8, ptr noundef nonnull align 8 dereferenceable(40) %0, i1 noundef zeroext true)
  %.not31 = icmp eq ptr %4, null
  br i1 %.not31, label %25, label %20

20:                                               ; preds = %19
  %21 = getelementptr inbounds nuw i8, ptr %8, i64 8
  %22 = load i32, ptr %21, align 8, !tbaa !143
  %23 = sext i32 %22 to i64
  %24 = call noundef ptr @_Z11save_callocPKcS0_imm(ptr noundef nonnull @.str.8, ptr noundef nonnull @.str.1, i32 noundef 471, i64 noundef range(i64 -2147483648, 2147483648) %23, i64 noundef 12)
  store ptr %24, ptr %4, align 8, !tbaa !132
  br label %25

25:                                               ; preds = %20, %19
  %.not32 = icmp eq ptr %5, null
  br i1 %.not32, label %31, label %26

26:                                               ; preds = %25
  %27 = getelementptr inbounds nuw i8, ptr %8, i64 8
  %28 = load i32, ptr %27, align 8, !tbaa !143
  %29 = sext i32 %28 to i64
  %30 = call noundef ptr @_Z11save_callocPKcS0_imm(ptr noundef nonnull @.str.9, ptr noundef nonnull @.str.1, i32 noundef 475, i64 noundef range(i64 -2147483648, 2147483648) %29, i64 noundef 12)
  store ptr %30, ptr %5, align 8, !tbaa !132
  br label %31

31:                                               ; preds = %26, %25
  call void @llvm.lifetime.start.p0(i64 4, ptr nonnull %9) #15
  br i1 %.not31, label %34, label %32

32:                                               ; preds = %31
  %33 = load ptr, ptr %4, align 8, !tbaa !132
  br label %34

34:                                               ; preds = %31, %32
  %35 = phi ptr [ %33, %32 ], [ null, %31 ]
  br i1 %.not32, label %38, label %36

36:                                               ; preds = %34
  %37 = load ptr, ptr %5, align 8, !tbaa !132
  br label %38

38:                                               ; preds = %34, %36
  %39 = phi ptr [ %37, %36 ], [ null, %34 ]
  %40 = call noundef i32 @_Z8read_tpxRKNSt10filesystem7__cxx114pathEP10t_inputrecPA3_fPiS7_S7_P10gmx_mtop_t(ptr noundef nonnull align 8 dereferenceable(40) %0, ptr noundef null, ptr noundef %6, ptr noundef nonnull %9, ptr noundef %35, ptr noundef %39, ptr noundef nonnull %2)
  br i1 %.not30, label %42, label %41

41:                                               ; preds = %38
  store i32 %40, ptr %3, align 4, !tbaa !142
  br label %42

42:                                               ; preds = %41, %38
  call void @llvm.lifetime.end.p0(i64 4, ptr nonnull %9) #15
  call void @llvm.lifetime.end.p0(i64 48, ptr nonnull %8) #15
  br label %47

43:                                               ; preds = %16
  call void @llvm.lifetime.start.p0(i64 16, ptr nonnull %10) #15
  call void @llvm.lifetime.start.p0(i64 8, ptr nonnull %11) #15
  call void @llvm.lifetime.start.p0(i64 72, ptr nonnull %12) #15
  call void @_Z11open_symtabP8t_symtab(ptr noundef nonnull %10)
  call void @_Z16readConfAndAtomsRKNSt10filesystem7__cxx114pathEP8t_symtabPPcP7t_atomsP7PbcTypePPA3_fSE_SD_(ptr noundef nonnull align 8 dereferenceable(40) %0, ptr noundef nonnull %10, ptr noundef nonnull %11, ptr noundef nonnull %12, ptr noundef %3, ptr noundef %4, ptr noundef %5, ptr noundef %6)
  %44 = load ptr, ptr %11, align 8, !tbaa !119
  %45 = call noundef ptr @_Z10put_symtabP8t_symtabPKc(ptr noundef nonnull %10, ptr noundef %44)
  call void @_Z18convertAtomsToMtopP8t_symtabPPcP7t_atomsP10gmx_mtop_t(ptr noundef nonnull %10, ptr noundef %45, ptr noundef nonnull %12, ptr noundef nonnull %2)
  %46 = load ptr, ptr %11, align 8, !tbaa !119
  call void @_Z9save_freePKcS0_iPv(ptr noundef nonnull @.str.20, ptr noundef nonnull @.str.1, i32 noundef 496, ptr noundef %46)
  call void @llvm.lifetime.end.p0(i64 72, ptr nonnull %12) #15
  call void @llvm.lifetime.end.p0(i64 8, ptr nonnull %11) #15
  call void @llvm.lifetime.end.p0(i64 16, ptr nonnull %10) #15
  br label %47

47:                                               ; preds = %43, %42
  ret void
}